; Function Attrs: mustprogress norecurse uwtable
define internal fastcc void @_ZL4helpRKNSt7__cxx1112basic_stringIcSt11char_traitsIcESaIcEEE(ptr noundef nonnull readonly align 8 captures(none) dereferenceable(32) %0) unnamed_addr #3 personality ptr @__gxx_personality_v0 {
  %2 = tail call noundef nonnull align 8 dereferenceable(8) ptr @_ZSt16__ostream_insertIcSt11char_traitsIcEERSt13basic_ostreamIT_T0_ES6_PKS3_l(ptr noundef nonnull align 8 dereferenceable(8) @_ZSt4cout, ptr noundef nonnull @.str.22, i64 noundef 21)
  %3 = load ptr, ptr %0, align 8, !tbaa !34
  %4 = getelementptr inbounds nuw i8, ptr %0, i64 8
  %5 = load i64, ptr %4, align 8, !tbaa !38
  %6 = tail call noundef nonnull align 8 dereferenceable(8) ptr @_ZSt16__ostream_insertIcSt11char_traitsIcEERSt13basic_ostreamIT_T0_ES6_PKS3_l(ptr noundef nonnull align 8 dereferenceable(8) @_ZSt4cout, ptr noundef %3, i64 noundef %5)
  %7 = load ptr, ptr %6, align 8, !tbaa !4
  %8 = getelementptr i8, ptr %7, i64 -24
  %9 = load i64, ptr %8, align 8
  %10 = getelementptr inbounds i8, ptr %6, i64 %9
  %11 = getelementptr inbounds nuw i8, ptr %10, i64 240
  %12 = load ptr, ptr %11, align 8, !tbaa !7
  %.not.i.i.i = icmp eq ptr %12, null
  br i1 %.not.i.i.i, label %13, label %_ZSt13__check_facetISt5ctypeIcEERKT_PS3_.exit.i.i

13:                                               ; preds = %1
  tail call void @_ZSt16__throw_bad_castv() #18
  unreachable

_ZSt13__check_facetISt5ctypeIcEERKT_PS3_.exit.i.i: ; preds = %1
  %14 = getelementptr inbounds nuw i8, ptr %12, i64 56
  %15 = load i8, ptr %14, align 8, !tbaa !27
  %.not.i1.i.i = icmp eq i8 %15, 0
  br i1 %.not.i1.i.i, label %19, label %16

16:                                               ; preds = %_ZSt13__check_facetISt5ctypeIcEERKT_PS3_.exit.i.i
  %17 = getelementptr inbounds nuw i8, ptr %12, i64 67
  %18 = load i8, ptr %17, align 1, !tbaa !33
  br label %_ZSt4endlIcSt11char_traitsIcEERSt13basic_ostreamIT_T0_ES6_.exit

19:                                               ; preds = %_ZSt13__check_facetISt5ctypeIcEERKT_PS3_.exit.i.i
  tail call void @_ZNKSt5ctypeIcE13_M_widen_initEv(ptr noundef nonnull align 8 dereferenceable(570) %12)
  %20 = load ptr, ptr %12, align 8, !tbaa !4
  %21 = getelementptr inbounds nuw i8, ptr %20, i64 48
  %22 = load ptr, ptr %21, align 8
  %23 = tail call noundef signext i8 %22(ptr noundef nonnull align 8 dereferenceable(570) %12, i8 noundef signext 10)
  br label %_ZSt4endlIcSt11char_traitsIcEERSt13basic_ostreamIT_T0_ES6_.exit

_ZSt4endlIcSt11char_traitsIcEERSt13basic_ostreamIT_T0_ES6_.exit: ; preds = %16, %19
  %.0.i.i.i = phi i8 [ %18, %16 ], [ %23, %19 ]
  %24 = tail call noundef nonnull align 8 dereferenceable(8) ptr @_ZNSo3putEc(ptr noundef nonnull align 8 dereferenceable(8) %6, i8 noundef signext %.0.i.i.i)
  %25 = tail call noundef nonnull align 8 dereferenceable(8) ptr @_ZNSo5flushEv(ptr noundef nonnull align 8 dereferenceable(8) %24)
  %26 = tail call noundef nonnull align 8 dereferenceable(8) ptr @_ZSt16__ostream_insertIcSt11char_traitsIcEERSt13basic_ostreamIT_T0_ES6_PKS3_l(ptr noundef nonnull align 8 dereferenceable(8) @_ZSt4cout, ptr noundef nonnull @.str.23, i64 noundef 59)
  %27 = load ptr, ptr @_ZSt4cout, align 8, !tbaa !4
  %28 = getelementptr i8, ptr %27, i64 -24
  %29 = load i64, ptr %28, align 8
  %30 = getelementptr inbounds i8, ptr @_ZSt4cout, i64 %29
  %31 = getelementptr inbounds nuw i8, ptr %30, i64 240
  %32 = load ptr, ptr %31, align 8, !tbaa !7
  %.not.i.i.i1 = icmp eq ptr %32, null
  br i1 %.not.i.i.i1, label %33, label %_ZSt13__check_facetISt5ctypeIcEERKT_PS3_.exit.i.i2

33:                                               ; preds = %_ZSt4endlIcSt11char_traitsIcEERSt13basic_ostreamIT_T0_ES6_.exit
  tail call void @_ZSt16__throw_bad_castv() #18
  unreachable

_ZSt13__check_facetISt5ctypeIcEERKT_PS3_.exit.i.i2: ; preds = %_ZSt4endlIcSt11char_traitsIcEERSt13basic_ostreamIT_T0_ES6_.exit
  %34 = getelementptr inbounds nuw i8, ptr %32, i64 56
  %35 = load i8, ptr %34, align 8, !tbaa !27
  %.not.i1.i.i3 = icmp eq i8 %35, 0
  br i1 %.not.i1.i.i3, label %39, label %36

36:                                               ; preds = %_ZSt13__check_facetISt5ctypeIcEERKT_PS3_.exit.i.i2
  %37 = getelementptr inbounds nuw i8, ptr %32, i64 67
  %38 = load i8, ptr %37, align 1, !tbaa !33
  br label %_ZSt4endlIcSt11char_traitsIcEERSt13basic_ostreamIT_T0_ES6_.exit5

39:                                               ; preds = %_ZSt13__check_facetISt5ctypeIcEERKT_PS3_.exit.i.i2
  tail call void @_ZNKSt5ctypeIcE13_M_widen_initEv(ptr noundef nonnull align 8 dereferenceable(570) %32)
  %40 = load ptr, ptr %32, align 8, !tbaa !4
  %41 = getelementptr inbounds nuw i8, ptr %40, i64 48
  %42 = load ptr, ptr %41, align 8
  %43 = tail call noundef signext i8 %42(ptr noundef nonnull align 8 dereferenceable(570) %32, i8 noundef signext 10)
  br label %_ZSt4endlIcSt11char_traitsIcEERSt13basic_ostreamIT_T0_ES6_.exit5

_ZSt4endlIcSt11char_traitsIcEERSt13basic_ostreamIT_T0_ES6_.exit5: ; preds = %36, %39
  %.0.i.i.i4 = phi i8 [ %38, %36 ], [ %43, %39 ]
  %44 = tail call noundef nonnull align 8 dereferenceable(8) ptr @_ZNSo3putEc(ptr noundef nonnull align 8 dereferenceable(8) @_ZSt4cout, i8 noundef signext %.0.i.i.i4)
  %45 = tail call noundef nonnull align 8 dereferenceable(8) ptr @_ZNSo5flushEv(ptr noundef nonnull align 8 dereferenceable(8) %44)
  %46 = tail call noundef nonnull align 8 dereferenceable(8) ptr @_ZSt16__ostream_insertIcSt11char_traitsIcEERSt13basic_ostreamIT_T0_ES6_PKS3_l(ptr noundef nonnull align 8 dereferenceable(8) @_ZSt4cout, ptr noundef nonnull @.str.24, i64 noundef 39)
  %47 = load ptr, ptr @_ZSt4cout, align 8, !tbaa !4
  %48 = getelementptr i8, ptr %47, i64 -24
  %49 = load i64, ptr %48, align 8
  %50 = getelementptr inbounds i8, ptr @_ZSt4cout, i64 %49
  %51 = getelementptr inbounds nuw i8, ptr %50, i64 240
  %52 = load ptr, ptr %51, align 8, !tbaa !7
  %.not.i.i.i6 = icmp eq ptr %52, null
  br i1 %.not.i.i.i6, label %53, label %_ZSt13__check_facetISt5ctypeIcEERKT_PS3_.exit.i.i7

53:                                               ; preds = %_ZSt4endlIcSt11char_traitsIcEERSt13basic_ostreamIT_T0_ES6_.exit5
  tail call void @_ZSt16__throw_bad_castv() #18
  unreachable

_ZSt13__check_facetISt5ctypeIcEERKT_PS3_.exit.i.i7: ; preds = %_ZSt4endlIcSt11char_traitsIcEERSt13basic_ostreamIT_T0_ES6_.exit5
  %54 = getelementptr inbounds nuw i8, ptr %52, i64 56
  %55 = load i8, ptr %54, align 8, !tbaa !27
  %.not.i1.i.i8 = icmp eq i8 %55, 0
  br i1 %.not.i1.i.i8, label %59, label %56

56:                                               ; preds = %_ZSt13__check_facetISt5ctypeIcEERKT_PS3_.exit.i.i7
  %57 = getelementptr inbounds nuw i8, ptr %52, i64 67
  %58 = load i8, ptr %57, align 1, !tbaa !33
  br label %_ZSt4endlIcSt11char_traitsIcEERSt13basic_ostreamIT_T0_ES6_.exit10

59:                                               ; preds = %_ZSt13__check_facetISt5ctypeIcEERKT_PS3_.exit.i.i7
  tail call void @_ZNKSt5ctypeIcE13_M_widen_initEv(ptr noundef nonnull align 8 dereferenceable(570) %52)
  %60 = load ptr, ptr %52, align 8, !tbaa !4
  %61 = getelementptr inbounds nuw i8, ptr %60, i64 48
  %62 = load ptr, ptr %61, align 8
  %63 = tail call noundef signext i8 %62(ptr noundef nonnull align 8 dereferenceable(570) %52, i8 noundef signext 10)
  br label %_ZSt4endlIcSt11char_traitsIcEERSt13basic_ostreamIT_T0_ES6_.exit10

_ZSt4endlIcSt11char_traitsIcEERSt13basic_ostreamIT_T0_ES6_.exit10: ; preds = %56, %59
  %.0.i.i.i9 = phi i8 [ %58, %56 ], [ %63, %59 ]
  %64 = tail call noundef nonnull align 8 dereferenceable(8) ptr @_ZNSo3putEc(ptr noundef nonnull align 8 dereferenceable(8) @_ZSt4cout, i8 noundef signext %.0.i.i.i9)
  %65 = tail call noundef nonnull align 8 dereferenceable(8) ptr @_ZNSo5flushEv(ptr noundef nonnull align 8 dereferenceable(8) %64)
  ret void
}